(dp1
S'IS'
p2
(lp3
(lp4
I712
aI511
aI297
aI530
aI393
aI506
aI426
aI239
aI481
aI354
aI139
aI284
aI444
aI771
aI746
aI618
aI742
aI789
aI179
aI304
aI573
aI691
aI674
aI675
aI687
aI629
aI609
aI475
aI568
aI751
aI728
aI454
aI388
aI739
aI236
aI670
aI785
aI778
aI554
aI536
aI4
aI496
aI645
aI710
aI529
aI375
aI64
aI250
aI343
aI474
aI94
aI602
aI200
aI695
aI146
aI135
aI273
aI633
aI313
aI493
aI459
aI392
aI291
aI752
aI122
aI679
aI737
aI141
aI555
aI551
aI607
aI389
aI25
aI314
aI83
aI467
aI11
aI507
aI431
aI124
aI666
aI574
aI221
aI688
aI397
aI500
aI617
aI223
aI634
aI694
aI123
aI350
aI406
aI689
aI503
aI12
aI449
aI585
aI352
aI258
aI193
aI508
aI781
aI664
aI448
aI420
aI483
aI23
aI336
aI667
aI559
aI361
aI185
aI225
aI164
aI56
aI765
aI644
aI228
aI408
aI443
aI382
aI381
aI692
aI631
aI289
aI616
aI593
aI152
aI171
aI1
aI96
aI611
aI748
aI111
aI717
aI248
aI642
aI121
aI620
aI637
aI646
aI2
aI366
aI652
aI401
aI53
aI601
aI542
aI701
aI234
aI201
aI690
aI211
aI650
aI345
aI736
aI615
aI517
aI309
aI432
aI240
aI527
aI658
aI108
aI46
aI140
aI479
aI538
aI485
aI787
aI760
aI364
aI266
aI255
aI612
aI720
aI565
aI60
aI533
aI222
aI581
aI786
aI655
aI490
aI82
aI777
aI613
aI347
aI427
aI6
aI339
aI276
aI696
aI308
aI641
aI128
aI340
aI148
aI722
aI532
aI195
aI635
aI357
aI150
aI480
aI132
aI447
aI317
aI784
aI423
aI541
aI439
aI40
aI425
aI700
aI435
aI293
aI89
aI418
aI163
aI697
aI372
aI55
aI788
aI515
aI346
aI540
aI30
aI442
aI299
aI67
aI725
aI88
aI311
aI589
aI575
aI41
aI38
aI90
aI319
aI251
aI685
aI591
aI32
aI288
aI501
aI606
aI470
aI578
aI561
aI264
aI537
aI567
aI28
aI306
aI733
aI583
aI126
aI580
aI677
aI577
aI596
aI441
aa(lp5
I495
aI523
aI398
aI78
aI173
aI669
aI698
aI405
aI605
aI275
aI553
aI472
aI455
aI303
aI330
aI349
aI466
aI287
aI86
aI767
aI168
aI219
aI127
aI62
aI452
aI630
aI254
aI85
aI281
aI376
aI154
aI0
aI7
aI167
aI191
aI224
aI166
aI188
aI445
aI80
aI624
aI9
aI22
aI35
aI69
aI181
aI451
aI226
aI199
aI556
aI282
aI48
aI162
aI386
aI72
aI790
aI54
aI213
aI604
aI579
aI622
aI680
aI237
aI245
aI272
aI526
aI120
aI315
aI654
aI478
aI723
aI544
aI335
aI253
aI747
aI628
aI488
aI566
aI738
aI390
aI356
aI766
aI268
aI410
aI608
aI247
aI552
aI719
aI764
aI118
aI438
aI76
aI206
aI758
aI198
aI176
aI31
aI113
aI158
aI99
aI672
aI16
aI600
aI564
aI610
aI776
aI218
aI353
aI290
aI463
aI678
aI757
aI464
aI178
aI87
aI407
aI326
aI499
aI75
aI333
aI673
aI783
aI457
aI518
aI98
aI51
aI557
aI394
aI640
aI419
aI562
aI70
aI192
aI169
aI212
aI33
aI323
aI17
aI133
aI705
aI512
aI332
aI671
aI50
aI745
aI759
aI592
aI763
aI660
aI116
aI525
aI378
aI61
aI136
aI235
aI599
aI131
aI400
aI106
aI563
aI395
aI249
aI681
aI142
aI8
aI619
aI153
aI727
aI762
aI307
aI716
aI344
aI355
aI549
aI437
aI595
aI713
aI342
aI360
aI487
aI399
aI477
aI770
aI621
aI729
aI711
aI119
aI486
aI627
aI703
aI402
aI305
aI715
aI741
aI348
aI238
aI769
aI572
aI217
aI34
aI269
aI110
aI693
aI184
aI412
aI202
aI465
aI656
aI115
aI754
aI648
aI369
aI584
aI298
aI243
aI3
aI156
aI428
aI755
aI546
aI768
aI174
aI461
aI10
aI643
aI93
aI242
aI57
aI155
aI623
aI468
aI341
aI194
aI430
aI231
aI215
aI661
aI434
aI743
aI744
aI318
aI130
aI232
aI91
aI780
aI241
aI107
aI316
aI137
aI724
aI638
aI731
aI295
aI105
aI300
aI576
aI651
aI657
aI379
aI79
aI43
aa(lp6
I774
aI42
aI278
aI383
aI65
aI149
aI44
aI256
aI230
aI71
aI180
aI261
aI49
aI5
aI161
aI151
aI183
aI302
aI114
aI197
aI458
aI21
aI476
aI726
aI773
aI109
aI539
aI104
aI415
aI214
aI292
aI665
aI371
aI274
aI196
aI614
aI709
aI414
aI721
aI310
aI244
aI279
aI782
aI471
aI396
aI440
aI520
aI653
aI636
aI262
aI659
aI668
aI598
aI301
aI582
aI24
aI498
aI519
aI373
aI704
aI560
aI186
aI682
aI545
aI446
aI570
aI203
aI365
aI370
aI68
aI209
aI329
aI387
aI267
aI84
aI100
aI143
aI103
aI403
aI220
aI129
aI63
aI558
aI97
aI409
aI252
aI368
aI571
aI594
aI331
aI138
aI81
aI26
aI380
aI112
aI450
aI351
aI157
aI391
aI422
aI732
aI516
aI145
aI20
aI265
aI208
aI625
aI718
aI569
aI588
aI27
aI708
aI706
aI597
aI59
aI362
aI175
aI699
aI367
aI521
aI510
aI260
aI590
aI779
aI233
aI384
aI19
aI535
aI750
aI504
aI749
aI47
aI359
aI363
aI92
aI210
aI101
aI36
aI735
aI325
aI294
aI286
aI548
aI102
aI257
aI460
aI134
aI632
aI358
aI531
aI29
aI639
aI321
aI14
aI277
aI374
aI147
aI182
aI283
aI522
aI683
aI429
aI740
aI424
aI547
aI491
aI686
aI484
aI730
aI497
aI647
aI190
aI45
aI707
aI734
aI205
aI385
aI513
aI312
aI334
aI327
aI603
aI58
aI514
aI324
aI296
aI421
aI413
aI189
aI453
aI95
aI469
aI489
aI404
aI285
aI187
aI761
aI433
aI160
aI662
aI271
aI207
aI502
aI39
aI15
aI649
aI505
aI117
aI338
aI411
aI263
aI177
aI229
aI714
aI482
aI626
aI77
aI170
aI534
aI328
aI462
aI320
aI753
aI204
aI416
aI377
aI74
aI270
aI756
aI473
aI66
aI259
aI663
aI417
aI144
aI524
aI456
aI775
aI702
aI676
aI246
aI436
aI322
aI216
aI37
aI509
aI172
aI587
aI227
aI550
aI492
aI13
aI280
aI494
aI165
aI543
aI125
aI337
aI528
aI159
aI52
aI18
aI586
aI772
aI73
aI684
aas.